; Function Attrs: mustprogress nounwind uwtable
define dso_local noundef i32 @_ZN5clang13serialization11ComputeHashENS_8SelectorE(i64 %0) local_unnamed_addr #1 {
  %2 = alloca %"class.clang::Selector", align 8
  store i64 %0, ptr %2, align 8
  %3 = call noundef i32 @_ZNK5clang8Selector10getNumArgsEv(ptr noundef nonnull align 8 dereferenceable(8) %2) #6
  %spec.select = call i32 @llvm.umax.i32(i32 %3, i32 1)
  br label %4

4:                                                ; preds = %1, %_ZN4llvm7djbHashENS_9StringRefEj.exit
  %.0916 = phi i32 [ 5381, %1 ], [ %.1, %_ZN4llvm7djbHashENS_9StringRefEj.exit ]
  %.01015 = phi i32 [ 0, %1 ], [ %18, %_ZN4llvm7djbHashENS_9StringRefEj.exit ]
  %5 = call noundef ptr @_ZNK5clang8Selector24getIdentifierInfoForSlotEj(ptr noundef nonnull align 8 dereferenceable(8) %2, i32 noundef %.01015) #6
  %.not14 = icmp eq ptr %5, null
  br i1 %.not14, label %_ZN4llvm7djbHashENS_9StringRefEj.exit, label %6

6:                                                ; preds = %4
  %7 = getelementptr inbounds nuw i8, ptr %5, i64 16
  %8 = load ptr, ptr %7, align 8
  %9 = getelementptr inbounds nuw i8, ptr %8, i64 16
  %10 = load i64, ptr %8, align 8
  %11 = and i64 %10, 4294967295
  %12 = getelementptr inbounds nuw i8, ptr %9, i64 %11
  %.not12.i = icmp eq i64 %11, 0
  br i1 %.not12.i, label %_ZN4llvm7djbHashENS_9StringRefEj.exit, label %.lr.ph.i

.lr.ph.i:                                         ; preds = %6, %.lr.ph.i
  %.014.i = phi i32 [ %16, %.lr.ph.i ], [ %.0916, %6 ]
  %.0913.i = phi ptr [ %17, %.lr.ph.i ], [ %9, %6 ]
  %13 = load i8, ptr %.0913.i, align 1
  %14 = mul i32 %.014.i, 33
  %15 = zext i8 %13 to i32
  %16 = add i32 %14, %15
  %17 = getelementptr inbounds nuw i8, ptr %.0913.i, i64 1
  %.not.i = icmp eq ptr %17, %12
  br i1 %.not.i, label %_ZN4llvm7djbHashENS_9StringRefEj.exit, label %.lr.ph.i

_ZN4llvm7djbHashENS_9StringRefEj.exit:            ; preds = %.lr.ph.i, %6, %4
  %.1 = phi i32 [ %.0916, %4 ], [ %.0916, %6 ], [ %16, %.lr.ph.i ]
  %18 = add nuw i32 %.01015, 1
  %.not = icmp eq i32 %18, %spec.select
  br i1 %.not, label %19, label %4, !llvm.loop !4

19:                                               ; preds = %_ZN4llvm7djbHashENS_9StringRefEj.exit
  ret i32 %.1
}